; Function Attrs: nounwind uwtable
define range(i32 -101, 1) i32 @IDASpilsSetJacTimesVecFnB(ptr noundef %0, i32 noundef %1, ptr noundef %2) local_unnamed_addr #0 {
  %4 = icmp eq ptr %0, null
  br i1 %4, label %5, label %6

5:                                                ; preds = %3
  tail call void (ptr, i32, ptr, ptr, ptr, ...) @IDAProcessError(ptr noundef null, i32 noundef -1, ptr noundef nonnull @.str, ptr noundef nonnull @.str.40, ptr noundef nonnull @.str.2) #5
  br label %IDASpilsSetJacTimesVecFn.exit

6:                                                ; preds = %3
  %7 = getelementptr inbounds nuw i8, ptr %0, i64 1824
  %8 = load i32, ptr %7, align 8, !tbaa !54
  %9 = icmp eq i32 %8, 0
  br i1 %9, label %10, label %11

10:                                               ; preds = %6
  tail call void (ptr, i32, ptr, ptr, ptr, ...) @IDAProcessError(ptr noundef nonnull %0, i32 noundef -101, ptr noundef nonnull @.str, ptr noundef nonnull @.str.40, ptr noundef nonnull @.str.31) #5
  br label %IDASpilsSetJacTimesVecFn.exit

11:                                               ; preds = %6
  %12 = getelementptr inbounds nuw i8, ptr %0, i64 1816
  %13 = load ptr, ptr %12, align 8, !tbaa !55
  %14 = getelementptr inbounds nuw i8, ptr %13, i64 40
  %15 = load i32, ptr %14, align 8, !tbaa !56
  %.not = icmp slt i32 %1, %15
  br i1 %.not, label %17, label %16

16:                                               ; preds = %11
  tail call void (ptr, i32, ptr, ptr, ptr, ...) @IDAProcessError(ptr noundef nonnull %0, i32 noundef -3, ptr noundef nonnull @.str, ptr noundef nonnull @.str.40, ptr noundef nonnull @.str.32) #5
  br label %IDASpilsSetJacTimesVecFn.exit

17:                                               ; preds = %11
  %18 = getelementptr inbounds nuw i8, ptr %13, i64 32
  br label %.lr.ph

.lr.ph:                                           ; preds = %.lr.ph, %17
  %.024.sink.in = phi ptr [ %21, %.lr.ph ], [ %18, %17 ]
  %.024.sink = load ptr, ptr %.024.sink.in, align 8, !tbaa !61, !nonnull !62, !noundef !62
  %19 = load i32, ptr %.024.sink, align 8, !tbaa !63
  %20 = icmp eq i32 %1, %19
  %21 = getelementptr inbounds nuw i8, ptr %.024.sink, i64 128
  br i1 %20, label %._crit_edge, label %.lr.ph

._crit_edge:                                      ; preds = %.lr.ph
  %22 = getelementptr inbounds nuw i8, ptr %.024.sink, i64 16
  %23 = load ptr, ptr %22, align 8, !tbaa !66
  %24 = getelementptr inbounds nuw i8, ptr %.024.sink, i64 72
  %25 = load ptr, ptr %24, align 8, !tbaa !67
  %26 = icmp eq ptr %25, null
  br i1 %26, label %27, label %28

27:                                               ; preds = %._crit_edge
  tail call void (ptr, i32, ptr, ptr, ptr, ...) @IDAProcessError(ptr noundef nonnull %0, i32 noundef -102, ptr noundef nonnull @.str, ptr noundef nonnull @.str.40, ptr noundef nonnull @.str.38) #5
  br label %IDASpilsSetJacTimesVecFn.exit

28:                                               ; preds = %._crit_edge
  store ptr %2, ptr %25, align 8, !tbaa !82
  %.not29 = icmp eq ptr %2, null
  %29 = icmp eq ptr %23, null
  br i1 %.not29, label %40, label %30

30:                                               ; preds = %28
  br i1 %29, label %31, label %32

31:                                               ; preds = %30
  tail call void (ptr, i32, ptr, ptr, ptr, ...) @IDAProcessError(ptr noundef null, i32 noundef -1, ptr noundef nonnull @.str, ptr noundef nonnull @.str.14, ptr noundef nonnull @.str.2) #5
  br label %IDASpilsSetJacTimesVecFn.exit

32:                                               ; preds = %30
  %33 = getelementptr inbounds nuw i8, ptr %23, i64 1632
  %34 = load ptr, ptr %33, align 8, !tbaa !3
  %35 = icmp eq ptr %34, null
  br i1 %35, label %36, label %37

36:                                               ; preds = %32
  tail call void (ptr, i32, ptr, ptr, ptr, ...) @IDAProcessError(ptr noundef nonnull %23, i32 noundef -2, ptr noundef nonnull @.str, ptr noundef nonnull @.str.14, ptr noundef nonnull @.str.3) #5
  br label %IDASpilsSetJacTimesVecFn.exit

37:                                               ; preds = %32
  %38 = getelementptr inbounds nuw i8, ptr %34, i64 240
  store i32 0, ptr %38, align 8, !tbaa !26
  %39 = getelementptr inbounds nuw i8, ptr %34, i64 248
  store ptr @IDAAspilsJacTimesVecB, ptr %39, align 8, !tbaa !27
  br label %IDASpilsSetJacTimesVecFn.exit

40:                                               ; preds = %28
  br i1 %29, label %41, label %42

41:                                               ; preds = %40
  tail call void (ptr, i32, ptr, ptr, ptr, ...) @IDAProcessError(ptr noundef null, i32 noundef -1, ptr noundef nonnull @.str, ptr noundef nonnull @.str.14, ptr noundef nonnull @.str.2) #5
  br label %IDASpilsSetJacTimesVecFn.exit

42:                                               ; preds = %40
  %43 = getelementptr inbounds nuw i8, ptr %23, i64 1632
  %44 = load ptr, ptr %43, align 8, !tbaa !3
  %45 = icmp eq ptr %44, null
  br i1 %45, label %46, label %47

46:                                               ; preds = %42
  tail call void (ptr, i32, ptr, ptr, ptr, ...) @IDAProcessError(ptr noundef nonnull %23, i32 noundef -2, ptr noundef nonnull @.str, ptr noundef nonnull @.str.14, ptr noundef nonnull @.str.3) #5
  br label %IDASpilsSetJacTimesVecFn.exit

47:                                               ; preds = %42
  %48 = getelementptr inbounds nuw i8, ptr %44, i64 240
  store i32 1, ptr %48, align 8, !tbaa !26
  br label %IDASpilsSetJacTimesVecFn.exit

IDASpilsSetJacTimesVecFn.exit:                    ; preds = %47, %46, %41, %37, %36, %31, %27, %16, %10, %5
  %.023 = phi i32 [ -1, %5 ], [ -101, %10 ], [ -3, %16 ], [ -3, %27 ], [ -1, %31 ], [ -2, %36 ], [ 0, %37 ], [ -1, %41 ], [ -2, %46 ], [ 0, %47 ]
  ret i32 %.023
}